; Function Attrs: nounwind uwtable
define void @stbte_mouse_move(ptr noundef %0, i32 noundef %1, i32 noundef %2, i32 noundef %3, i32 noundef %4) local_unnamed_addr #15 {
  store i32 2, ptr getelementptr inbounds nuw (i8, ptr @stbte__ui, i64 20), align 4, !tbaa !95
  store i32 %1, ptr getelementptr inbounds nuw (i8, ptr @stbte__ui, i64 24), align 8, !tbaa !99
  store i32 %2, ptr getelementptr inbounds nuw (i8, ptr @stbte__ui, i64 28), align 4, !tbaa !100
  %6 = load i32, ptr getelementptr inbounds nuw (i8, ptr @stbte__ui, i64 5236), align 4, !tbaa !211
  %7 = sub nsw i32 %1, %6
  store i32 %7, ptr getelementptr inbounds nuw (i8, ptr @stbte__ui, i64 32), align 8, !tbaa !212
  %8 = load i32, ptr getelementptr inbounds nuw (i8, ptr @stbte__ui, i64 5240), align 8, !tbaa !213
  %9 = sub nsw i32 %2, %8
  store i32 %9, ptr getelementptr inbounds nuw (i8, ptr @stbte__ui, i64 36), align 4, !tbaa !214
  store i32 %1, ptr getelementptr inbounds nuw (i8, ptr @stbte__ui, i64 5236), align 4, !tbaa !211
  store i32 %2, ptr getelementptr inbounds nuw (i8, ptr @stbte__ui, i64 5240), align 8, !tbaa !213
  %10 = load i32, ptr getelementptr inbounds nuw (i8, ptr @stbte__ui, i64 5244), align 4, !tbaa !97
  %11 = add nsw i32 %10, %7
  store i32 %11, ptr getelementptr inbounds nuw (i8, ptr @stbte__ui, i64 5244), align 4, !tbaa !97
  %12 = load i32, ptr getelementptr inbounds nuw (i8, ptr @stbte__ui, i64 5248), align 8, !tbaa !98
  %13 = add nsw i32 %12, %9
  store i32 %13, ptr getelementptr inbounds nuw (i8, ptr @stbte__ui, i64 5248), align 8, !tbaa !98
  store i32 %3, ptr getelementptr inbounds nuw (i8, ptr @stbte__ui, i64 44), align 4, !tbaa !104
  store i32 %4, ptr getelementptr inbounds nuw (i8, ptr @stbte__ui, i64 48), align 8, !tbaa !184
  tail call void @stbte__do_event(ptr noundef %0)
  ret void
}